target datalayout = "e-m:e-p270:32:32-p271:32:32-p272:64:64-i64:64-i128:128-f80:128-n8:16:32:64-S128"
target triple = "x86_64-pc-linux-gnu"

%struct.PJconsts = type { ptr, ptr, ptr, ptr, ptr, ptr, ptr, ptr, ptr, ptr, ptr, ptr, i32, ptr, ptr, ptr, ptr, ptr, ptr, ptr, ptr, double, double, double, double, double, double, double, double, double, double, double, double, double, double, double, double, double, double, double, double, double, double, i32, i32, i32, i32, i32, i32, i32, i32, i32, i32, i32, ptr, ptr, ptr, ptr, ptr, ptr, double, double, double, double, double, double, double, double, double, double, double, i32, [7 x double], i32, ptr, ptr, double, double, i32, [4 x i8], %"class.std::shared_ptr", i8, double, i8, %"class.std::__cxx11::basic_string", %"class.std::__cxx11::basic_string", %"class.std::__cxx11::basic_string", i8, %"class.std::vector", i32, %"class.std::vector.3", i32, i8, i8, i8, ptr }
%"class.std::shared_ptr" = type { %"class.std::__shared_ptr" }
%"class.std::__shared_ptr" = type { ptr, %"class.std::__shared_count" }
%"class.std::__shared_count" = type { ptr }
%"class.std::__cxx11::basic_string" = type { %"struct.std::__cxx11::basic_string<char>::_Alloc_hider", i64, %union.anon }
%"struct.std::__cxx11::basic_string<char>::_Alloc_hider" = type { ptr }
%union.anon = type { i64, [8 x i8] }
%"class.std::vector" = type { %"struct.std::_Vector_base" }
%"struct.std::_Vector_base" = type { %"struct.std::_Vector_base<osgeo::proj::operation::GridDescription, std::allocator<osgeo::proj::operation::GridDescription>>::_Vector_impl" }
%"struct.std::_Vector_base<osgeo::proj::operation::GridDescription, std::allocator<osgeo::proj::operation::GridDescription>>::_Vector_impl" = type { %"struct.std::_Vector_base<osgeo::proj::operation::GridDescription, std::allocator<osgeo::proj::operation::GridDescription>>::_Vector_impl_data" }
%"struct.std::_Vector_base<osgeo::proj::operation::GridDescription, std::allocator<osgeo::proj::operation::GridDescription>>::_Vector_impl_data" = type { ptr, ptr, ptr }
%"class.std::vector.3" = type { %"struct.std::_Vector_base.4" }
%"struct.std::_Vector_base.4" = type { %"struct.std::_Vector_base<PJCoordOperation, std::allocator<PJCoordOperation>>::_Vector_impl" }
%"struct.std::_Vector_base<PJCoordOperation, std::allocator<PJCoordOperation>>::_Vector_impl" = type { %"struct.std::_Vector_base<PJCoordOperation, std::allocator<PJCoordOperation>>::_Vector_impl_data" }
%"struct.std::_Vector_base<PJCoordOperation, std::allocator<PJCoordOperation>>::_Vector_impl_data" = type { ptr, ptr, ptr }
%union.PROJVALUE = type { double }
%struct.pj_ctx = type <{ %"class.std::__cxx11::basic_string", i32, i32, i8, i8, [6 x i8], ptr, ptr, ptr, i32, i8, [3 x i8], i32, [4 x i8], %"class.std::__cxx11::basic_string", %"class.std::vector.8", ptr, ptr, ptr, %"class.std::map", i8, [7 x i8], %struct.projFileApiCallbackAndData, %"class.std::__cxx11::basic_string", %"class.std::__cxx11::basic_string", i8, [7 x i8], %"class.std::__cxx11::basic_string", %struct.projNetworkCallbacksAndData, %"class.std::__cxx11::basic_string", i8, [7 x i8], %struct.projGridChunkCache, i32, i32, i32, [4 x i8] }>
%"class.std::vector.8" = type { %"struct.std::_Vector_base.9" }
%"struct.std::_Vector_base.9" = type { %"struct.std::_Vector_base<std::__cxx11::basic_string<char>, std::allocator<std::__cxx11::basic_string<char>>>::_Vector_impl" }
%"struct.std::_Vector_base<std::__cxx11::basic_string<char>, std::allocator<std::__cxx11::basic_string<char>>>::_Vector_impl" = type { %"struct.std::_Vector_base<std::__cxx11::basic_string<char>, std::allocator<std::__cxx11::basic_string<char>>>::_Vector_impl_data" }
%"struct.std::_Vector_base<std::__cxx11::basic_string<char>, std::allocator<std::__cxx11::basic_string<char>>>::_Vector_impl_data" = type { ptr, ptr, ptr }
%"class.std::map" = type { %"class.std::_Rb_tree" }
%"class.std::_Rb_tree" = type { %"struct.std::_Rb_tree<std::__cxx11::basic_string<char>, std::pair<const std::__cxx11::basic_string<char>, std::__cxx11::basic_string<char>>, std::_Select1st<std::pair<const std::__cxx11::basic_string<char>, std::__cxx11::basic_string<char>>>, std::less<std::__cxx11::basic_string<char>>>::_Rb_tree_impl" }
%"struct.std::_Rb_tree<std::__cxx11::basic_string<char>, std::pair<const std::__cxx11::basic_string<char>, std::__cxx11::basic_string<char>>, std::_Select1st<std::pair<const std::__cxx11::basic_string<char>, std::__cxx11::basic_string<char>>>, std::less<std::__cxx11::basic_string<char>>>::_Rb_tree_impl" = type { [8 x i8], %"struct.std::_Rb_tree_header" }
%"struct.std::_Rb_tree_header" = type { %"struct.std::_Rb_tree_node_base", i64 }
%"struct.std::_Rb_tree_node_base" = type { i32, ptr, ptr, ptr }
%struct.projFileApiCallbackAndData = type { ptr, ptr, ptr, ptr, ptr, ptr, ptr, ptr, ptr, ptr, ptr }
%struct.projNetworkCallbacksAndData = type { i8, ptr, ptr, ptr, ptr, ptr }
%struct.projGridChunkCache = type <{ i8, [7 x i8], %"class.std::__cxx11::basic_string", i64, i32, [4 x i8] }>

@.str.10 = private unnamed_addr constant [8 x i8] c"bapprox\00", align 1
@.str.11 = private unnamed_addr constant [6 x i8] c"salgo\00", align 1
@.str.12 = private unnamed_addr constant [15 x i8] c"evenden_snyder\00", align 1
@.str.13 = private unnamed_addr constant [15 x i8] c"poder_engsager\00", align 1
@.str.14 = private unnamed_addr constant [5 x i8] c"auto\00", align 1
@.str.15 = private unnamed_addr constant [24 x i8] c"unknown value for +algo\00", align 1

; Function Attrs: mustprogress uwtable
define internal noundef zeroext i1 @_ZL17getAlgoFromParamsP8PJconstsR9TMercAlgo(ptr noundef %0, ptr noundef nonnull align 4 dereferenceable(4) %1) #0 {
  %3 = alloca i1, align 1
  %4 = alloca ptr, align 8
  %5 = alloca ptr, align 8
  %6 = alloca %union.PROJVALUE, align 8
  %7 = alloca ptr, align 8
  %8 = alloca %union.PROJVALUE, align 8
  %9 = alloca i32, align 4
  store ptr %0, ptr %4, align 8, !tbaa !3
  store ptr %1, ptr %5, align 8, !tbaa !43
  call void @llvm.lifetime.start.p0(i64 8, ptr %6) #11
  %10 = load ptr, ptr %4, align 8, !tbaa !3
  %11 = getelementptr inbounds nuw %struct.PJconsts, ptr %10, i32 0, i32 0
  %12 = load ptr, ptr %11, align 8, !tbaa !44
  %13 = load ptr, ptr %4, align 8, !tbaa !3
  %14 = getelementptr inbounds nuw %struct.PJconsts, ptr %13, i32 0, i32 3
  %15 = load ptr, ptr %14, align 8, !tbaa !45
  %16 = call i64 @_Z8pj_paramP6pj_ctxP8ARG_listPKc(ptr noundef %12, ptr noundef %15, ptr noundef @.str.10)
  %17 = getelementptr inbounds nuw %union.PROJVALUE, ptr %6, i32 0, i32 0
  store i64 %16, ptr %17, align 8
  %18 = load i32, ptr %6, align 8, !tbaa !46
  %19 = icmp ne i32 %18, 0
  call void @llvm.lifetime.end.p0(i64 8, ptr %6) #11
  br i1 %19, label %20, label %22

20:                                               ; preds = %2
  %21 = load ptr, ptr %5, align 8, !tbaa !43
  store i32 1, ptr %21, align 4, !tbaa !41
  store i1 true, ptr %3, align 1
  br label %93

22:                                               ; preds = %2
  call void @llvm.lifetime.start.p0(i64 8, ptr %7) #11
  call void @llvm.lifetime.start.p0(i64 8, ptr %8) #11
  %23 = load ptr, ptr %4, align 8, !tbaa !3
  %24 = getelementptr inbounds nuw %struct.PJconsts, ptr %23, i32 0, i32 0
  %25 = load ptr, ptr %24, align 8, !tbaa !44
  %26 = load ptr, ptr %4, align 8, !tbaa !3
  %27 = getelementptr inbounds nuw %struct.PJconsts, ptr %26, i32 0, i32 3
  %28 = load ptr, ptr %27, align 8, !tbaa !45
  %29 = call i64 @_Z8pj_paramP6pj_ctxP8ARG_listPKc(ptr noundef %25, ptr noundef %28, ptr noundef @.str.11)
  %30 = getelementptr inbounds nuw %union.PROJVALUE, ptr %8, i32 0, i32 0
  store i64 %29, ptr %30, align 8
  %31 = load ptr, ptr %8, align 8, !tbaa !46
  call void @llvm.lifetime.end.p0(i64 8, ptr %8) #11
  store ptr %31, ptr %7, align 8, !tbaa !47
  %32 = load ptr, ptr %7, align 8, !tbaa !47
  %33 = icmp ne ptr %32, null
  br i1 %33, label %34, label %55

34:                                               ; preds = %22
  %35 = load ptr, ptr %7, align 8, !tbaa !47
  %36 = call i32 @strcmp(ptr noundef %35, ptr noundef @.str.12) #12
  %37 = icmp eq i32 %36, 0
  br i1 %37, label %38, label %40

38:                                               ; preds = %34
  %39 = load ptr, ptr %5, align 8, !tbaa !43
  store i32 1, ptr %39, align 4, !tbaa !41
  store i1 true, ptr %3, align 1
  store i32 1, ptr %9, align 4
  br label %92

40:                                               ; preds = %34
  %41 = load ptr, ptr %7, align 8, !tbaa !47
  %42 = call i32 @strcmp(ptr noundef %41, ptr noundef @.str.13) #12
  %43 = icmp eq i32 %42, 0
  br i1 %43, label %44, label %46

44:                                               ; preds = %40
  %45 = load ptr, ptr %5, align 8, !tbaa !43
  store i32 2, ptr %45, align 4, !tbaa !41
  store i1 true, ptr %3, align 1
  store i32 1, ptr %9, align 4
  br label %92

46:                                               ; preds = %40
  %47 = load ptr, ptr %7, align 8, !tbaa !47
  %48 = call i32 @strcmp(ptr noundef %47, ptr noundef @.str.14) #12
  %49 = icmp eq i32 %48, 0
  br i1 %49, label %50, label %52

50:                                               ; preds = %46
  %51 = load ptr, ptr %5, align 8, !tbaa !43
  store i32 0, ptr %51, align 4, !tbaa !41
  br label %54

52:                                               ; preds = %46
  %53 = load ptr, ptr %4, align 8, !tbaa !3
  call void (ptr, ptr, ...) @_Z14proj_log_errorPK8PJconstsPKcz(ptr noundef %53, ptr noundef @.str.15)
  store i1 false, ptr %3, align 1
  store i32 1, ptr %9, align 4
  br label %92

54:                                               ; preds = %50
  br label %68

55:                                               ; preds = %22
  %56 = load ptr, ptr %4, align 8, !tbaa !3
  %57 = getelementptr inbounds nuw %struct.PJconsts, ptr %56, i32 0, i32 0
  %58 = load ptr, ptr %57, align 8, !tbaa !44
  call void @_Z11pj_load_iniP6pj_ctx(ptr noundef %58)
  %59 = load ptr, ptr %4, align 8, !tbaa !3
  %60 = getelementptr inbounds nuw %struct.PJconsts, ptr %59, i32 0, i32 0
  %61 = load ptr, ptr %60, align 8, !tbaa !44
  call void @_Z22proj_context_errno_setP6pj_ctxi(ptr noundef %61, i32 noundef 0)
  %62 = load ptr, ptr %4, align 8, !tbaa !3
  %63 = getelementptr inbounds nuw %struct.PJconsts, ptr %62, i32 0, i32 0
  %64 = load ptr, ptr %63, align 8, !tbaa !44
  %65 = getelementptr inbounds nuw %struct.pj_ctx, ptr %64, i32 0, i32 33
  %66 = load i32, ptr %65, align 8, !tbaa !48
  %67 = load ptr, ptr %5, align 8, !tbaa !43
  store i32 %66, ptr %67, align 4, !tbaa !41
  br label %68

68:                                               ; preds = %55, %54
  %69 = load ptr, ptr %5, align 8, !tbaa !43
  %70 = load i32, ptr %69, align 4, !tbaa !41
  %71 = icmp eq i32 %70, 0
  br i1 %71, label %72, label %91

72:                                               ; preds = %68
  %73 = load ptr, ptr %4, align 8, !tbaa !3
  %74 = getelementptr inbounds nuw %struct.PJconsts, ptr %73, i32 0, i32 27
  %75 = load double, ptr %74, align 8, !tbaa !71
  %76 = fcmp ogt double %75, 1.000000e-01
  br i1 %76, label %89, label %77

77:                                               ; preds = %72
  %78 = load ptr, ptr %4, align 8, !tbaa !3
  %79 = getelementptr inbounds nuw %struct.PJconsts, ptr %78, i32 0, i32 61
  %80 = load double, ptr %79, align 8, !tbaa !72
  %81 = fcmp une double %80, 0.000000e+00
  br i1 %81, label %89, label %82

82:                                               ; preds = %77
  %83 = load ptr, ptr %4, align 8, !tbaa !3
  %84 = getelementptr inbounds nuw %struct.PJconsts, ptr %83, i32 0, i32 66
  %85 = load double, ptr %84, align 8, !tbaa !73
  %86 = fsub double %85, 1.000000e+00
  %87 = call double @llvm.fabs.f64(double %86)
  %88 = fcmp ogt double %87, 1.000000e-02
  br i1 %88, label %89, label %91

89:                                               ; preds = %82, %77, %72
  %90 = load ptr, ptr %5, align 8, !tbaa !43
  store i32 2, ptr %90, align 4, !tbaa !41
  br label %91

91:                                               ; preds = %89, %82, %68
  store i1 true, ptr %3, align 1
  store i32 1, ptr %9, align 4
  br label %92

92:                                               ; preds = %91, %52, %44, %38
  call void @llvm.lifetime.end.p0(i64 8, ptr %7) #11
  br label %93

93:                                               ; preds = %92, %20
  %94 = load i1, ptr %3, align 1
  ret i1 %94
}