; Function Attrs: mustprogress uwtable
define internal fastcc noundef zeroext i1 @_ZL17getAlgoFromParamsP8PJconstsR9TMercAlgo(ptr noundef %0, ptr noundef nonnull writeonly align 4 captures(none) dereferenceable(4) %1) unnamed_addr #0 {
  %3 = load ptr, ptr %0, align 8, !tbaa !42
  %4 = getelementptr inbounds nuw i8, ptr %0, i64 24
  %5 = load ptr, ptr %4, align 8, !tbaa !43
  %6 = tail call i64 @_Z8pj_paramP6pj_ctxP8ARG_listPKc(ptr noundef %3, ptr noundef %5, ptr noundef nonnull @.str.10)
  %7 = and i64 %6, 4294967295
  %.not = icmp eq i64 %7, 0
  br i1 %.not, label %9, label %8

8:                                                ; preds = %2
  store i32 1, ptr %1, align 4, !tbaa !3
  br label %47

9:                                                ; preds = %2
  %10 = load ptr, ptr %0, align 8, !tbaa !42
  %11 = load ptr, ptr %4, align 8, !tbaa !43
  %12 = tail call i64 @_Z8pj_paramP6pj_ctxP8ARG_listPKc(ptr noundef %10, ptr noundef %11, ptr noundef nonnull @.str.11)
  %.sroa.0.0..sroa.0.0..cast = inttoptr i64 %12 to ptr
  %.not24 = icmp eq i64 %12, 0
  br i1 %.not24, label %25, label %13

13:                                               ; preds = %9
  %14 = tail call i32 @strcmp(ptr noundef nonnull dereferenceable(1) %.sroa.0.0..sroa.0.0..cast, ptr noundef nonnull dereferenceable(15) @.str.12) #12
  %15 = icmp eq i32 %14, 0
  br i1 %15, label %16, label %17

16:                                               ; preds = %13
  store i32 1, ptr %1, align 4, !tbaa !3
  br label %47

17:                                               ; preds = %13
  %18 = tail call i32 @strcmp(ptr noundef nonnull dereferenceable(1) %.sroa.0.0..sroa.0.0..cast, ptr noundef nonnull dereferenceable(15) @.str.13) #12
  %19 = icmp eq i32 %18, 0
  br i1 %19, label %20, label %21

20:                                               ; preds = %17
  store i32 2, ptr %1, align 4, !tbaa !3
  br label %47

21:                                               ; preds = %17
  %22 = tail call i32 @strcmp(ptr noundef nonnull dereferenceable(1) %.sroa.0.0..sroa.0.0..cast, ptr noundef nonnull dereferenceable(5) @.str.14) #12
  %23 = icmp eq i32 %22, 0
  br i1 %23, label %.thread, label %24

.thread:                                          ; preds = %21
  store i32 0, ptr %1, align 4, !tbaa !3
  br label %32

24:                                               ; preds = %21
  tail call void (ptr, ptr, ...) @_Z14proj_log_errorPK8PJconstsPKcz(ptr noundef nonnull %0, ptr noundef nonnull @.str.15)
  br label %47

25:                                               ; preds = %9
  %26 = load ptr, ptr %0, align 8, !tbaa !42
  tail call void @_Z11pj_load_iniP6pj_ctx(ptr noundef %26)
  %27 = load ptr, ptr %0, align 8, !tbaa !42
  tail call void @_Z22proj_context_errno_setP6pj_ctxi(ptr noundef %27, i32 noundef 0)
  %28 = load ptr, ptr %0, align 8, !tbaa !42
  %29 = getelementptr inbounds nuw i8, ptr %28, i64 560
  %30 = load i32, ptr %29, align 8, !tbaa !44
  store i32 %30, ptr %1, align 4, !tbaa !3
  %31 = icmp eq i32 %30, 0
  br i1 %31, label %32, label %47

32:                                               ; preds = %.thread, %25
  %33 = getelementptr inbounds nuw i8, ptr %0, i64 216
  %34 = load double, ptr %33, align 8, !tbaa !67
  %35 = fcmp ogt double %34, 1.000000e-01
  br i1 %35, label %46, label %36

36:                                               ; preds = %32
  %37 = getelementptr inbounds nuw i8, ptr %0, i64 448
  %38 = load double, ptr %37, align 8, !tbaa !68
  %39 = fcmp une double %38, 0.000000e+00
  br i1 %39, label %46, label %40

40:                                               ; preds = %36
  %41 = getelementptr inbounds nuw i8, ptr %0, i64 488
  %42 = load double, ptr %41, align 8, !tbaa !69
  %43 = fadd double %42, -1.000000e+00
  %44 = tail call double @llvm.fabs.f64(double %43)
  %45 = fcmp ogt double %44, 1.000000e-02
  br i1 %45, label %46, label %47

46:                                               ; preds = %40, %36, %32
  store i32 2, ptr %1, align 4, !tbaa !3
  br label %47

47:                                               ; preds = %16, %20, %24, %46, %40, %25, %8
  %.0 = phi i1 [ true, %8 ], [ true, %16 ], [ true, %20 ], [ false, %24 ], [ true, %46 ], [ true, %40 ], [ true, %25 ]
  ret i1 %.0
}